target datalayout = "e-m:e-p270:32:32-p271:32:32-p272:64:64-i64:64-i128:128-f80:128-n8:16:32:64-S128"
target triple = "x86_64-pc-linux-gnu"

%class.QString = type { ptr }
%class.QObject = type { ptr, %class.QScopedPointer }
%class.QScopedPointer = type { ptr }
%class.QPointF = type { double, double }
%class.QFlags = type { i32 }
%class.QualityMapperDialog = type { %class.QDockWidget, %"class.Ui::QualityMapperDialogClass", ptr, ptr, %class.QGraphicsScene, [3 x ptr], double, i8, i8, %class.QList, i32, ptr, ptr, ptr, %class.QGraphicsScene, ptr, [3 x %class.QList.22], ptr, %class.QString, %class.QList, %class.QList, i8, %class.QList.25, %class.QList, ptr, ptr }
%class.QDockWidget = type { %class.QWidget }
%class.QWidget = type { %class.QObject, %class.QPaintDevice, ptr }
%class.QPaintDevice = type { ptr, i16, ptr }
%"class.Ui::QualityMapperDialogClass" = type { %class.Ui_QualityMapperDialogClass }
%class.Ui_QualityMapperDialogClass = type { ptr, ptr, ptr, ptr, ptr, ptr, ptr, ptr, ptr, ptr, ptr, ptr, ptr, ptr, ptr, ptr, ptr, ptr, ptr, ptr, ptr, ptr, ptr, ptr, ptr, ptr, ptr, ptr, ptr, ptr, ptr, ptr, ptr, ptr, ptr, ptr, ptr, ptr, ptr, ptr, ptr, ptr, ptr, ptr, ptr, ptr, ptr, ptr, ptr, ptr, ptr, ptr, ptr, ptr, ptr, ptr, ptr, ptr, ptr, ptr, ptr, ptr, ptr, ptr, ptr, ptr, ptr, ptr }
%class.QGraphicsScene = type { %class.QObject }
%class.QList.22 = type { %union.anon.24 }
%union.anon.24 = type { %struct.QListData }
%struct.QListData = type { ptr }
%class.QList.25 = type { %union.anon.27 }
%union.anon.27 = type { %struct.QListData }
%class.QList = type { %union.anon }
%union.anon = type { %struct.QListData }
%class.QFont = type <{ %class.QExplicitlySharedDataPointer, i32, [4 x i8] }>
%class.QExplicitlySharedDataPointer = type { ptr }
%class.QRect = type { i32, i32, i32, i32 }
%class.QWidgetData = type { i64, i32, %class.QFlags, i32, %class.QRect, [4 x i8], %class.QPalette, %class.QFont, %class.QRect }
%class.QPalette = type <{ ptr, %union.anon.173, [4 x i8] }>
%union.anon.173 = type { %"struct.QPalette::Data" }
%"struct.QPalette::Data" = type { i32 }
%struct.CHART_INFO = type { ptr, float, float, float, float, i32, i32 }
%class.QPen = type { ptr }
%class.QBrush = type { %class.QScopedPointer.195 }
%class.QScopedPointer.195 = type { ptr }
%class.QLineF = type { %class.QPointF, %class.QPointF }

; Function Attrs: mustprogress nounwind uwtable
define linkonce_odr void @_ZN7QPointFC2Edd(ptr noundef nonnull align 8 dereferenceable(16) %0, double noundef %1, double noundef %2) unnamed_addr #4 comdat align 2 {
  %4 = alloca ptr, align 8
  %5 = alloca double, align 8
  %6 = alloca double, align 8
  store ptr %0, ptr %4, align 8
  store double %1, ptr %5, align 8
  store double %2, ptr %6, align 8
  %7 = load ptr, ptr %4, align 8
  %8 = getelementptr inbounds %class.QPointF, ptr %7, i32 0, i32 0
  %9 = load double, ptr %5, align 8
  store double %9, ptr %8, align 8
  %10 = getelementptr inbounds %class.QPointF, ptr %7, i32 0, i32 1
  %11 = load double, ptr %6, align 8
  store double %11, ptr %10, align 8
  ret void
}

; Function Attrs: mustprogress nounwind uwtable
define linkonce_odr noundef i32 @_ZNK5QRect5widthEv(ptr noundef nonnull align 4 dereferenceable(16) %0) #4 comdat align 2 {
  %2 = alloca ptr, align 8
  store ptr %0, ptr %2, align 8
  %3 = load ptr, ptr %2, align 8
  %4 = getelementptr inbounds %class.QRect, ptr %3, i32 0, i32 2
  %5 = load i32, ptr %4, align 4
  %6 = getelementptr inbounds %class.QRect, ptr %3, i32 0, i32 0
  %7 = load i32, ptr %6, align 4
  %8 = sub nsw i32 %5, %7
  %9 = add nsw i32 %8, 1
  ret i32 %9
}

; Function Attrs: mustprogress nounwind uwtable
define linkonce_odr noundef i32 @_ZNK5QRect6heightEv(ptr noundef nonnull align 4 dereferenceable(16) %0) #4 comdat align 2 {
  %2 = alloca ptr, align 8
  store ptr %0, ptr %2, align 8
  %3 = load ptr, ptr %2, align 8
  %4 = getelementptr inbounds %class.QRect, ptr %3, i32 0, i32 3
  %5 = load i32, ptr %4, align 4
  %6 = getelementptr inbounds %class.QRect, ptr %3, i32 0, i32 1
  %7 = load i32, ptr %6, align 4
  %8 = sub nsw i32 %5, %7
  %9 = add nsw i32 %8, 1
  ret i32 %9
}

; Function Attrs: mustprogress uwtable
define linkonce_odr void @_ZN6QLineFC2Edddd(ptr noundef nonnull align 8 dereferenceable(32) %0, double noundef %1, double noundef %2, double noundef %3, double noundef %4) unnamed_addr #5 comdat align 2 {
  %6 = alloca ptr, align 8
  %7 = alloca double, align 8
  %8 = alloca double, align 8
  %9 = alloca double, align 8
  %10 = alloca double, align 8
  store ptr %0, ptr %6, align 8
  store double %1, ptr %7, align 8
  store double %2, ptr %8, align 8
  store double %3, ptr %9, align 8
  store double %4, ptr %10, align 8
  %11 = load ptr, ptr %6, align 8
  %12 = getelementptr inbounds %class.QLineF, ptr %11, i32 0, i32 0
  %13 = load double, ptr %7, align 8
  %14 = load double, ptr %8, align 8
  call void @_ZN7QPointFC2Edd(ptr noundef nonnull align 8 dereferenceable(16) %12, double noundef %13, double noundef %14)
  %15 = getelementptr inbounds %class.QLineF, ptr %11, i32 0, i32 1
  %16 = load double, ptr %9, align 8
  %17 = load double, ptr %10, align 8
  call void @_ZN7QPointFC2Edd(ptr noundef nonnull align 8 dereferenceable(16) %15, double noundef %16, double noundef %17)
  ret void
}

; Function Attrs: mustprogress nounwind uwtable
define linkonce_odr noundef i32 @_ZNK7QWidget5widthEv(ptr noundef nonnull align 8 dereferenceable(48) %0) #4 comdat align 2 {
  %2 = alloca ptr, align 8
  store ptr %0, ptr %2, align 8
  %3 = load ptr, ptr %2, align 8
  %4 = getelementptr inbounds %class.QWidget, ptr %3, i32 0, i32 2
  %5 = load ptr, ptr %4, align 8
  %6 = getelementptr inbounds %class.QWidgetData, ptr %5, i32 0, i32 4
  %7 = call noundef i32 @_ZNK5QRect5widthEv(ptr noundef nonnull align 4 dereferenceable(16) %6) #3
  ret i32 %7
}

; Function Attrs: mustprogress nounwind uwtable
define linkonce_odr noundef i32 @_ZNK7QWidget6heightEv(ptr noundef nonnull align 8 dereferenceable(48) %0) #4 comdat align 2 {
  %2 = alloca ptr, align 8
  store ptr %0, ptr %2, align 8
  %3 = load ptr, ptr %2, align 8
  %4 = getelementptr inbounds %class.QWidget, ptr %3, i32 0, i32 2
  %5 = load ptr, ptr %4, align 8
  %6 = getelementptr inbounds %class.QWidgetData, ptr %5, i32 0, i32 4
  %7 = call noundef i32 @_ZNK5QRect6heightEv(ptr noundef nonnull align 4 dereferenceable(16) %6) #3
  ret i32 %7
}

; Function Attrs: mustprogress nounwind uwtable
define linkonce_odr noundef float @_ZN10CHART_INFO11upperBorderEv(ptr noundef nonnull align 8 dereferenceable(32) %0) #4 comdat align 2 {
  %2 = alloca ptr, align 8
  store ptr %0, ptr %2, align 8
  ret float 1.000000e+01
}

; Function Attrs: mustprogress uwtable
define linkonce_odr noundef nonnull align 8 dereferenceable(8) ptr @_ZN5QListIP13QGraphicsItemElsERKS1_(ptr noundef nonnull align 8 dereferenceable(8) %0, ptr noundef nonnull align 8 dereferenceable(8) %1) #5 comdat align 2 {
  %3 = alloca ptr, align 8
  %4 = alloca ptr, align 8
  store ptr %0, ptr %3, align 8
  store ptr %1, ptr %4, align 8
  %5 = load ptr, ptr %3, align 8
  %6 = load ptr, ptr %4, align 8
  call void @_ZN5QListIP13QGraphicsItemE6appendERKS1_(ptr noundef nonnull align 8 dereferenceable(8) %5, ptr noundef nonnull align 8 dereferenceable(8) %6)
  ret ptr %5
}

; Function Attrs: mustprogress uwtable
define linkonce_odr noundef ptr @_ZN14QGraphicsScene7addLineEddddRK4QPen(ptr noundef nonnull align 8 dereferenceable(16) %0, double noundef %1, double noundef %2, double noundef %3, double noundef %4, ptr noundef nonnull align 8 dereferenceable(8) %5) #5 comdat align 2 {
  %7 = alloca ptr, align 8
  %8 = alloca double, align 8
  %9 = alloca double, align 8
  %10 = alloca double, align 8
  %11 = alloca double, align 8
  %12 = alloca ptr, align 8
  %13 = alloca %class.QLineF, align 8
  store ptr %0, ptr %7, align 8
  store double %1, ptr %8, align 8
  store double %2, ptr %9, align 8
  store double %3, ptr %10, align 8
  store double %4, ptr %11, align 8
  store ptr %5, ptr %12, align 8
  %14 = load ptr, ptr %7, align 8
  %15 = load double, ptr %8, align 8
  %16 = load double, ptr %9, align 8
  %17 = load double, ptr %10, align 8
  %18 = load double, ptr %11, align 8
  call void @_ZN6QLineFC2Edddd(ptr noundef nonnull align 8 dereferenceable(32) %13, double noundef %15, double noundef %16, double noundef %17, double noundef %18)
  %19 = load ptr, ptr %12, align 8
  %20 = call noundef ptr @_ZN14QGraphicsScene7addLineERK6QLineFRK4QPen(ptr noundef nonnull align 8 dereferenceable(16) %14, ptr noundef nonnull align 8 dereferenceable(32) %13, ptr noundef nonnull align 8 dereferenceable(8) %19)
  ret ptr %20
}

; Function Attrs: mustprogress nounwind uwtable
define linkonce_odr noundef float @_ZN10CHART_INFO11rightBorderEv(ptr noundef nonnull align 8 dereferenceable(32) %0) #4 comdat align 2 {
  %2 = alloca ptr, align 8
  store ptr %0, ptr %2, align 8
  %3 = load ptr, ptr %2, align 8
  %4 = getelementptr inbounds %struct.CHART_INFO, ptr %3, i32 0, i32 0
  %5 = load ptr, ptr %4, align 8
  %6 = call noundef i32 @_ZNK7QWidget5widthEv(ptr noundef nonnull align 8 dereferenceable(48) %5)
  %7 = sitofp i32 %6 to float
  %8 = fsub float %7, 1.000000e+01
  ret float %8
}

; Function Attrs: mustprogress nounwind uwtable
define linkonce_odr noundef float @_ZN10CHART_INFO11lowerBorderEv(ptr noundef nonnull align 8 dereferenceable(32) %0) #4 comdat align 2 {
  %2 = alloca ptr, align 8
  store ptr %0, ptr %2, align 8
  %3 = load ptr, ptr %2, align 8
  %4 = getelementptr inbounds %struct.CHART_INFO, ptr %3, i32 0, i32 0
  %5 = load ptr, ptr %4, align 8
  %6 = call noundef i32 @_ZNK7QWidget6heightEv(ptr noundef nonnull align 8 dereferenceable(48) %5)
  %7 = sitofp i32 %6 to float
  %8 = fsub float %7, 1.000000e+01
  ret float %8
}

; Function Attrs: mustprogress nounwind uwtable
define linkonce_odr noundef float @_ZN10CHART_INFO10leftBorderEv(ptr noundef nonnull align 8 dereferenceable(32) %0) #4 comdat align 2 {
  %2 = alloca ptr, align 8
  store ptr %0, ptr %2, align 8
  ret float 1.000000e+01
}

; Function Attrs: mustprogress uwtable
define void @_ZN19QualityMapperDialog15drawChartBasicsER14QGraphicsSceneP10CHART_INFO(ptr noundef nonnull align 8 dereferenceable(824) %0, ptr noundef nonnull align 8 dereferenceable(16) %1, ptr noundef %2) #5 align 2 personality ptr @__gxx_personality_v0 {
  %4 = alloca ptr, align 8
  %5 = alloca ptr, align 8
  %6 = alloca ptr, align 8
  %7 = alloca %class.QPen, align 8
  %8 = alloca %class.QBrush, align 8
  %9 = alloca ptr, align 8
  %10 = alloca i32, align 4
  %11 = alloca ptr, align 8
  store ptr %0, ptr %4, align 8
  store ptr %1, ptr %5, align 8
  store ptr %2, ptr %6, align 8
  %12 = load ptr, ptr %4, align 8
  call void @_ZN6QBrushC1EN2Qt11GlobalColorENS0_10BrushStyleE(ptr noundef nonnull align 8 dereferenceable(8) %8, i32 noundef 2, i32 noundef 1)
  invoke void @_ZN4QPenC1ERK6QBrushdN2Qt8PenStyleENS3_11PenCapStyleENS3_12PenJoinStyleE(ptr noundef nonnull align 8 dereferenceable(8) %7, ptr noundef nonnull align 8 dereferenceable(8) %8, double noundef 2.000000e+00, i32 noundef 1, i32 noundef 16, i32 noundef 64)
          to label %13 unwind label %39

13:                                               ; preds = %3
  call void @_ZN6QBrushD1Ev(ptr noundef nonnull align 8 dereferenceable(8) %8) #3
  store ptr null, ptr %11, align 8
  %14 = load ptr, ptr %5, align 8
  %15 = load ptr, ptr %6, align 8
  %16 = call noundef float @_ZN10CHART_INFO10leftBorderEv(ptr noundef nonnull align 8 dereferenceable(32) %15)
  %17 = fpext float %16 to double
  %18 = load ptr, ptr %6, align 8
  %19 = call noundef float @_ZN10CHART_INFO11lowerBorderEv(ptr noundef nonnull align 8 dereferenceable(32) %18)
  %20 = fpext float %19 to double
  %21 = load ptr, ptr %6, align 8
  %22 = call noundef float @_ZN10CHART_INFO11rightBorderEv(ptr noundef nonnull align 8 dereferenceable(32) %21)
  %23 = fpext float %22 to double
  %24 = load ptr, ptr %6, align 8
  %25 = call noundef float @_ZN10CHART_INFO11lowerBorderEv(ptr noundef nonnull align 8 dereferenceable(32) %24)
  %26 = fpext float %25 to double
  %27 = invoke noundef ptr @_ZN14QGraphicsScene7addLineEddddRK4QPen(ptr noundef nonnull align 8 dereferenceable(16) %14, double noundef %17, double noundef %20, double noundef %23, double noundef %26, ptr noundef nonnull align 8 dereferenceable(8) %7)
          to label %28 unwind label %43

28:                                               ; preds = %13
  store ptr %27, ptr %11, align 8
  %29 = load ptr, ptr %11, align 8
  invoke void @_ZN13QGraphicsItem9setZValueEd(ptr noundef nonnull align 8 dereferenceable(16) %29, double noundef 0.000000e+00)
          to label %30 unwind label %43

30:                                               ; preds = %28
  %31 = load ptr, ptr %6, align 8
  %32 = getelementptr inbounds %class.QualityMapperDialog, ptr %12, i32 0, i32 13
  %33 = load ptr, ptr %32, align 8
  %34 = icmp eq ptr %31, %33
  br i1 %34, label %35, label %47

35:                                               ; preds = %30
  %36 = getelementptr inbounds %class.QualityMapperDialog, ptr %12, i32 0, i32 19
  %37 = invoke noundef nonnull align 8 dereferenceable(8) ptr @_ZN5QListIP13QGraphicsItemElsERKS1_(ptr noundef nonnull align 8 dereferenceable(8) %36, ptr noundef nonnull align 8 dereferenceable(8) %11)
          to label %38 unwind label %43

38:                                               ; preds = %35
  br label %51

39:                                               ; preds = %3
  %40 = landingpad { ptr, i32 }
          cleanup
  %41 = extractvalue { ptr, i32 } %40, 0
  store ptr %41, ptr %9, align 8
  %42 = extractvalue { ptr, i32 } %40, 1
  store i32 %42, ptr %10, align 4
  call void @_ZN6QBrushD1Ev(ptr noundef nonnull align 8 dereferenceable(8) %8) #3
  br label %82

43:                                               ; preds = %77, %73, %66, %51, %47, %35, %28, %13
  %44 = landingpad { ptr, i32 }
          cleanup
  %45 = extractvalue { ptr, i32 } %44, 0
  store ptr %45, ptr %9, align 8
  %46 = extractvalue { ptr, i32 } %44, 1
  store i32 %46, ptr %10, align 4
  call void @_ZN4QPenD1Ev(ptr noundef nonnull align 8 dereferenceable(8) %7) #3
  br label %82

47:                                               ; preds = %30
  %48 = getelementptr inbounds %class.QualityMapperDialog, ptr %12, i32 0, i32 9
  %49 = invoke noundef nonnull align 8 dereferenceable(8) ptr @_ZN5QListIP13QGraphicsItemElsERKS1_(ptr noundef nonnull align 8 dereferenceable(8) %48, ptr noundef nonnull align 8 dereferenceable(8) %11)
          to label %50 unwind label %43

50:                                               ; preds = %47
  br label %51

51:                                               ; preds = %50, %38
  %52 = load ptr, ptr %5, align 8
  %53 = load ptr, ptr %6, align 8
  %54 = call noundef float @_ZN10CHART_INFO10leftBorderEv(ptr noundef nonnull align 8 dereferenceable(32) %53)
  %55 = fpext float %54 to double
  %56 = load ptr, ptr %6, align 8
  %57 = call noundef float @_ZN10CHART_INFO11upperBorderEv(ptr noundef nonnull align 8 dereferenceable(32) %56)
  %58 = fpext float %57 to double
  %59 = load ptr, ptr %6, align 8
  %60 = call noundef float @_ZN10CHART_INFO10leftBorderEv(ptr noundef nonnull align 8 dereferenceable(32) %59)
  %61 = fpext float %60 to double
  %62 = load ptr, ptr %6, align 8
  %63 = call noundef float @_ZN10CHART_INFO11lowerBorderEv(ptr noundef nonnull align 8 dereferenceable(32) %62)
  %64 = fpext float %63 to double
  %65 = invoke noundef ptr @_ZN14QGraphicsScene7addLineEddddRK4QPen(ptr noundef nonnull align 8 dereferenceable(16) %52, double noundef %55, double noundef %58, double noundef %61, double noundef %64, ptr noundef nonnull align 8 dereferenceable(8) %7)
          to label %66 unwind label %43

66:                                               ; preds = %51
  store ptr %65, ptr %11, align 8
  %67 = load ptr, ptr %11, align 8
  invoke void @_ZN13QGraphicsItem9setZValueEd(ptr noundef nonnull align 8 dereferenceable(16) %67, double noundef 0.000000e+00)
          to label %68 unwind label %43

68:                                               ; preds = %66
  %69 = load ptr, ptr %6, align 8
  %70 = getelementptr inbounds %class.QualityMapperDialog, ptr %12, i32 0, i32 13
  %71 = load ptr, ptr %70, align 8
  %72 = icmp eq ptr %69, %71
  br i1 %72, label %73, label %77

73:                                               ; preds = %68
  %74 = getelementptr inbounds %class.QualityMapperDialog, ptr %12, i32 0, i32 19
  %75 = invoke noundef nonnull align 8 dereferenceable(8) ptr @_ZN5QListIP13QGraphicsItemElsERKS1_(ptr noundef nonnull align 8 dereferenceable(8) %74, ptr noundef nonnull align 8 dereferenceable(8) %11)
          to label %76 unwind label %43

76:                                               ; preds = %73
  br label %81

77:                                               ; preds = %68
  %78 = getelementptr inbounds %class.QualityMapperDialog, ptr %12, i32 0, i32 9
  %79 = invoke noundef nonnull align 8 dereferenceable(8) ptr @_ZN5QListIP13QGraphicsItemElsERKS1_(ptr noundef nonnull align 8 dereferenceable(8) %78, ptr noundef nonnull align 8 dereferenceable(8) %11)
          to label %80 unwind label %43

80:                                               ; preds = %77
  br label %81

81:                                               ; preds = %80, %76
  call void @_ZN4QPenD1Ev(ptr noundef nonnull align 8 dereferenceable(8) %7) #3
  ret void

82:                                               ; preds = %43, %39
  %83 = load ptr, ptr %9, align 8
  %84 = load i32, ptr %10, align 4
  %85 = insertvalue { ptr, i32 } poison, ptr %83, 0
  %86 = insertvalue { ptr, i32 } %85, i32 %84, 1
  resume { ptr, i32 } %86
}