; Function Attrs: mustprogress uwtable
define void @_ZN19QualityMapperDialog15drawChartBasicsER14QGraphicsSceneP10CHART_INFO(ptr noundef nonnull align 8 dereferenceable(824) %0, ptr noundef nonnull align 8 dereferenceable(16) %1, ptr noundef readonly %2) local_unnamed_addr #9 align 2 personality ptr @__gxx_personality_v0 {
  %4 = alloca %class.QLineF, align 16
  %5 = alloca %class.QLineF, align 8
  %6 = alloca %class.QPen, align 8
  %7 = alloca %class.QBrush, align 8
  %8 = alloca ptr, align 8
  call void @_ZN6QBrushC1EN2Qt11GlobalColorENS0_10BrushStyleE(ptr noundef nonnull align 8 dereferenceable(8) %7, i32 noundef 2, i32 noundef 1)
  invoke void @_ZN4QPenC1ERK6QBrushdN2Qt8PenStyleENS3_11PenCapStyleENS3_12PenJoinStyleE(ptr noundef nonnull align 8 dereferenceable(8) %6, ptr noundef nonnull align 8 dereferenceable(8) %7, double noundef 2.000000e+00, i32 noundef 1, i32 noundef 16, i32 noundef 64)
          to label %9 unwind label %32

9:                                                ; preds = %3
  call void @_ZN6QBrushD1Ev(ptr noundef nonnull align 8 dereferenceable(8) %7) #23
  store ptr null, ptr %8, align 8
  %10 = load ptr, ptr %2, align 8
  %11 = getelementptr inbounds i8, ptr %10, i64 40
  %12 = load ptr, ptr %11, align 8
  %13 = getelementptr inbounds i8, ptr %12, i64 20
  %14 = getelementptr inbounds i8, ptr %12, i64 28
  %15 = getelementptr inbounds i8, ptr %5, i64 8
  %16 = load <2 x i32>, ptr %14, align 4
  %17 = load <2 x i32>, ptr %13, align 4
  %18 = add <2 x i32> %16, <i32 1, i32 1>
  %19 = sub <2 x i32> %18, %17
  %20 = sitofp <2 x i32> %19 to <2 x float>
  %21 = fadd <2 x float> %20, <float -1.000000e+01, float -1.000000e+01>
  %22 = fpext <2 x float> %21 to <2 x double>
  call void @llvm.lifetime.start.p0(i64 32, ptr nonnull %5)
  store double 1.000000e+01, ptr %5, align 8
  %23 = shufflevector <2 x double> %22, <2 x double> poison, <2 x i32> <i32 1, i32 0>
  store <2 x double> %23, ptr %15, align 8
  %24 = getelementptr inbounds i8, ptr %5, i64 24
  %25 = extractelement <2 x double> %22, i64 1
  store double %25, ptr %24, align 8
  %26 = invoke noundef ptr @_ZN14QGraphicsScene7addLineERK6QLineFRK4QPen(ptr noundef nonnull align 8 dereferenceable(16) %1, ptr noundef nonnull align 8 dereferenceable(32) %5, ptr noundef nonnull align 8 dereferenceable(8) %6)
          to label %27 unwind label %34

27:                                               ; preds = %9
  call void @llvm.lifetime.end.p0(i64 32, ptr nonnull %5)
  store ptr %26, ptr %8, align 8
  invoke void @_ZN13QGraphicsItem9setZValueEd(ptr noundef nonnull align 8 dereferenceable(16) %26, double noundef 0.000000e+00)
          to label %.invoke22 unwind label %34

.invoke22:                                        ; preds = %27
  %28 = getelementptr inbounds i8, ptr %0, i64 696
  %29 = load ptr, ptr %28, align 8
  %30 = icmp eq ptr %29, %2
  %. = select i1 %30, i64 768, i64 664
  %31 = getelementptr inbounds i8, ptr %0, i64 %.
  invoke void @_ZN5QListIP13QGraphicsItemE6appendERKS1_(ptr noundef nonnull align 8 dereferenceable(8) %31, ptr noundef nonnull align 8 dereferenceable(8) %8)
          to label %_ZN5QListIP13QGraphicsItemElsERKS1_.exit unwind label %34

32:                                               ; preds = %3
  %33 = landingpad { ptr, i32 }
          cleanup
  call void @_ZN6QBrushD1Ev(ptr noundef nonnull align 8 dereferenceable(8) %7) #23
  br label %55

34:                                               ; preds = %.invoke22, %.invoke, %_ZN5QListIP13QGraphicsItemElsERKS1_.exit, %9, %51, %27
  %35 = landingpad { ptr, i32 }
          cleanup
  call void @_ZN4QPenD1Ev(ptr noundef nonnull align 8 dereferenceable(8) %6) #23
  br label %55

_ZN5QListIP13QGraphicsItemElsERKS1_.exit:         ; preds = %.invoke22
  %36 = load ptr, ptr %2, align 8
  %37 = getelementptr inbounds i8, ptr %36, i64 40
  %38 = load ptr, ptr %37, align 8
  %39 = getelementptr inbounds i8, ptr %38, i64 32
  %40 = load i32, ptr %39, align 4
  %41 = getelementptr inbounds i8, ptr %38, i64 24
  %42 = load i32, ptr %41, align 4
  %43 = add i32 %40, 1
  %44 = sub i32 %43, %42
  %45 = sitofp i32 %44 to float
  %46 = fadd float %45, -1.000000e+01
  %47 = fpext float %46 to double
  call void @llvm.lifetime.start.p0(i64 32, ptr nonnull %4)
  store <2 x double> <double 1.000000e+01, double 1.000000e+01>, ptr %4, align 16
  %48 = getelementptr inbounds i8, ptr %4, i64 16
  store double 1.000000e+01, ptr %48, align 16
  %49 = getelementptr inbounds i8, ptr %4, i64 24
  store double %47, ptr %49, align 8
  %50 = invoke noundef ptr @_ZN14QGraphicsScene7addLineERK6QLineFRK4QPen(ptr noundef nonnull align 8 dereferenceable(16) %1, ptr noundef nonnull align 8 dereferenceable(32) %4, ptr noundef nonnull align 8 dereferenceable(8) %6)
          to label %51 unwind label %34

51:                                               ; preds = %_ZN5QListIP13QGraphicsItemElsERKS1_.exit
  call void @llvm.lifetime.end.p0(i64 32, ptr nonnull %4)
  store ptr %50, ptr %8, align 8
  invoke void @_ZN13QGraphicsItem9setZValueEd(ptr noundef nonnull align 8 dereferenceable(16) %50, double noundef 0.000000e+00)
          to label %.invoke unwind label %34

.invoke:                                          ; preds = %51
  %52 = load ptr, ptr %28, align 8
  %53 = icmp eq ptr %52, %2
  %.24 = select i1 %53, i64 768, i64 664
  %54 = getelementptr inbounds i8, ptr %0, i64 %.24
  invoke void @_ZN5QListIP13QGraphicsItemE6appendERKS1_(ptr noundef nonnull align 8 dereferenceable(8) %54, ptr noundef nonnull align 8 dereferenceable(8) %8)
          to label %_ZN5QListIP13QGraphicsItemElsERKS1_.exit18 unwind label %34

_ZN5QListIP13QGraphicsItemElsERKS1_.exit18:       ; preds = %.invoke
  call void @_ZN4QPenD1Ev(ptr noundef nonnull align 8 dereferenceable(8) %6) #23
  ret void

55:                                               ; preds = %34, %32
  %.pn = phi { ptr, i32 } [ %35, %34 ], [ %33, %32 ]
  resume { ptr, i32 } %.pn
}